target datalayout = "e-m:e-p270:32:32-p271:32:32-p272:64:64-i64:64-i128:128-f80:128-n8:16:32:64-S128"
target triple = "x86_64-pc-linux-gnu"

%"class.std::vector.0" = type { %"struct.std::_Vector_base.1" }
%"struct.std::_Vector_base.1" = type { %"struct.std::_Vector_base<int, std::allocator<int>>::_Vector_impl" }
%"struct.std::_Vector_base<int, std::allocator<int>>::_Vector_impl" = type { %"struct.std::_Vector_base<int, std::allocator<int>>::_Vector_impl_data" }
%"struct.std::_Vector_base<int, std::allocator<int>>::_Vector_impl_data" = type { ptr, ptr, ptr }
%"struct.faiss::HNSW::MinimaxHeap" = type { i32, i32, i32, %"class.std::vector.0", %"class.std::vector.56" }
%"class.std::vector.56" = type { %"struct.std::_Vector_base.57" }
%"struct.std::_Vector_base.57" = type { %"struct.std::_Vector_base<float, std::allocator<float>>::_Vector_impl" }
%"struct.std::_Vector_base<float, std::allocator<float>>::_Vector_impl" = type { %"struct.std::_Vector_base<float, std::allocator<float>>::_Vector_impl_data" }
%"struct.std::_Vector_base<float, std::allocator<float>>::_Vector_impl_data" = type { ptr, ptr, ptr }

; Function Attrs: mustprogress nounwind uwtable
define linkonce_odr noundef nonnull align 4 dereferenceable(4) ptr @_ZNSt6vectorIfSaIfEEixEm(ptr noundef nonnull align 8 dereferenceable(24) %0, i64 noundef %1) #5 comdat align 2 {
  %3 = alloca ptr, align 8
  %4 = alloca i64, align 8
  store ptr %0, ptr %3, align 8, !tbaa !425
  store i64 %1, ptr %4, align 8, !tbaa !19
  %5 = load ptr, ptr %3, align 8
  %6 = getelementptr inbounds nuw %"struct.std::_Vector_base.57", ptr %5, i32 0, i32 0
  %7 = getelementptr inbounds nuw %"struct.std::_Vector_base<float, std::allocator<float>>::_Vector_impl_data", ptr %6, i32 0, i32 0
  %8 = load ptr, ptr %7, align 8, !tbaa !427
  %9 = load i64, ptr %4, align 8, !tbaa !19
  %10 = getelementptr inbounds nuw float, ptr %8, i64 %9
  ret ptr %10
}

; Function Attrs: mustprogress nounwind uwtable
define noundef i32 @_ZN5faiss4HNSW11MinimaxHeap11count_belowEf(ptr noundef nonnull align 8 dereferenceable(64) %0, float noundef %1) #5 align 2 {
  %3 = alloca ptr, align 8
  %4 = alloca float, align 4
  %5 = alloca i32, align 4
  %6 = alloca i32, align 4
  store ptr %0, ptr %3, align 8, !tbaa !392
  store float %1, ptr %4, align 4, !tbaa !70
  %7 = load ptr, ptr %3, align 8
  call void @llvm.lifetime.start.p0(i64 4, ptr %5) #3
  store i32 0, ptr %5, align 4, !tbaa !9
  call void @llvm.lifetime.start.p0(i64 4, ptr %6) #3
  store i32 0, ptr %6, align 4, !tbaa !9
  br label %8

8:                                                ; preds = %26, %2
  %9 = load i32, ptr %6, align 4, !tbaa !9
  %10 = getelementptr inbounds nuw %"struct.faiss::HNSW::MinimaxHeap", ptr %7, i32 0, i32 1
  %11 = load i32, ptr %10, align 4, !tbaa !428
  %12 = icmp slt i32 %9, %11
  br i1 %12, label %14, label %13

13:                                               ; preds = %8
  call void @llvm.lifetime.end.p0(i64 4, ptr %6) #3
  br label %29

14:                                               ; preds = %8
  %15 = getelementptr inbounds nuw %"struct.faiss::HNSW::MinimaxHeap", ptr %7, i32 0, i32 4
  %16 = load i32, ptr %6, align 4, !tbaa !9
  %17 = sext i32 %16 to i64
  %18 = call noundef nonnull align 4 dereferenceable(4) ptr @_ZNSt6vectorIfSaIfEEixEm(ptr noundef nonnull align 8 dereferenceable(24) %15, i64 noundef %17) #3
  %19 = load float, ptr %18, align 4, !tbaa !70
  %20 = load float, ptr %4, align 4, !tbaa !70
  %21 = fcmp olt float %19, %20
  br i1 %21, label %22, label %25

22:                                               ; preds = %14
  %23 = load i32, ptr %5, align 4, !tbaa !9
  %24 = add nsw i32 %23, 1
  store i32 %24, ptr %5, align 4, !tbaa !9
  br label %25

25:                                               ; preds = %22, %14
  br label %26

26:                                               ; preds = %25
  %27 = load i32, ptr %6, align 4, !tbaa !9
  %28 = add nsw i32 %27, 1
  store i32 %28, ptr %6, align 4, !tbaa !9
  br label %8, !llvm.loop !431

29:                                               ; preds = %13
  %30 = load i32, ptr %5, align 4, !tbaa !9
  call void @llvm.lifetime.end.p0(i64 4, ptr %5) #3
  ret i32 %30
}