; Function Attrs: mustprogress nofree norecurse nosync nounwind willreturn memory(read, inaccessiblemem: none) uwtable
define noundef i32 @_ZN5faiss4HNSW11MinimaxHeap11count_belowEf(ptr noundef nonnull readonly align 8 captures(none) dereferenceable(64) %0, float noundef %1) local_unnamed_addr #11 align 2 {
  %3 = getelementptr inbounds nuw i8, ptr %0, i64 4
  %4 = load i32, ptr %3, align 4, !tbaa !218
  %5 = icmp sgt i32 %4, 0
  br i1 %5, label %.lr.ph, label %._crit_edge

.lr.ph:                                           ; preds = %2
  %6 = getelementptr inbounds nuw i8, ptr %0, i64 40
  %7 = load ptr, ptr %6, align 8, !tbaa !216
  %wide.trip.count = zext nneg i32 %4 to i64
  br label %8

._crit_edge:                                      ; preds = %8, %2
  %.06.lcssa = phi i32 [ 0, %2 ], [ %.1, %8 ]
  ret i32 %.06.lcssa

8:                                                ; preds = %.lr.ph, %8
  %indvars.iv = phi i64 [ 0, %.lr.ph ], [ %indvars.iv.next, %8 ]
  %.067 = phi i32 [ 0, %.lr.ph ], [ %.1, %8 ]
  %9 = getelementptr inbounds nuw float, ptr %7, i64 %indvars.iv
  %10 = load float, ptr %9, align 4, !tbaa !127
  %11 = fcmp olt float %10, %1
  %12 = zext i1 %11 to i32
  %.1 = add nuw nsw i32 %.067, %12
  %indvars.iv.next = add nuw nsw i64 %indvars.iv, 1
  %exitcond.not = icmp eq i64 %indvars.iv.next, %wide.trip.count
  br i1 %exitcond.not, label %._crit_edge, label %8, !llvm.loop !221
}